target datalayout = "e-m:e-p270:32:32-p271:32:32-p272:64:64-i64:64-i128:128-f80:128-n8:16:32:64-S128"
target triple = "x86_64-pc-linux-gnu"

%struct.idea_key_st = type { [9 x [6 x i32]] }

; Function Attrs: nounwind uwtable
define void @IDEA_set_encrypt_key(ptr noundef %0, ptr noundef %1) #0 {
  %3 = alloca ptr, align 8
  %4 = alloca ptr, align 8
  %5 = alloca i32, align 4
  %6 = alloca ptr, align 8
  %7 = alloca ptr, align 8
  %8 = alloca i32, align 4
  %9 = alloca i32, align 4
  %10 = alloca i32, align 4
  store ptr %0, ptr %3, align 8, !tbaa !3
  store ptr %1, ptr %4, align 8, !tbaa !8
  call void @llvm.lifetime.start.p0(i64 4, ptr %5) #2
  call void @llvm.lifetime.start.p0(i64 8, ptr %6) #2
  call void @llvm.lifetime.start.p0(i64 8, ptr %7) #2
  call void @llvm.lifetime.start.p0(i64 4, ptr %8) #2
  call void @llvm.lifetime.start.p0(i64 4, ptr %9) #2
  call void @llvm.lifetime.start.p0(i64 4, ptr %10) #2
  %11 = load ptr, ptr %4, align 8, !tbaa !8
  %12 = getelementptr inbounds nuw %struct.idea_key_st, ptr %11, i32 0, i32 0
  %13 = getelementptr inbounds [9 x [6 x i32]], ptr %12, i64 0, i64 0
  %14 = getelementptr inbounds [6 x i32], ptr %13, i64 0, i64 0
  store ptr %14, ptr %6, align 8, !tbaa !10
  %15 = load ptr, ptr %3, align 8, !tbaa !3
  %16 = getelementptr inbounds nuw i8, ptr %15, i32 1
  store ptr %16, ptr %3, align 8, !tbaa !3
  %17 = load i8, ptr %15, align 1, !tbaa !12
  %18 = zext i8 %17 to i32
  %19 = shl i32 %18, 8
  %20 = load ptr, ptr %6, align 8, !tbaa !10
  %21 = getelementptr inbounds i32, ptr %20, i64 0
  store i32 %19, ptr %21, align 4, !tbaa !13
  %22 = load ptr, ptr %3, align 8, !tbaa !3
  %23 = getelementptr inbounds nuw i8, ptr %22, i32 1
  store ptr %23, ptr %3, align 8, !tbaa !3
  %24 = load i8, ptr %22, align 1, !tbaa !12
  %25 = zext i8 %24 to i32
  %26 = load ptr, ptr %6, align 8, !tbaa !10
  %27 = getelementptr inbounds i32, ptr %26, i64 0
  %28 = load i32, ptr %27, align 4, !tbaa !13
  %29 = or i32 %28, %25
  store i32 %29, ptr %27, align 4, !tbaa !13
  %30 = load ptr, ptr %3, align 8, !tbaa !3
  %31 = getelementptr inbounds nuw i8, ptr %30, i32 1
  store ptr %31, ptr %3, align 8, !tbaa !3
  %32 = load i8, ptr %30, align 1, !tbaa !12
  %33 = zext i8 %32 to i32
  %34 = shl i32 %33, 8
  %35 = load ptr, ptr %6, align 8, !tbaa !10
  %36 = getelementptr inbounds i32, ptr %35, i64 1
  store i32 %34, ptr %36, align 4, !tbaa !13
  %37 = load ptr, ptr %3, align 8, !tbaa !3
  %38 = getelementptr inbounds nuw i8, ptr %37, i32 1
  store ptr %38, ptr %3, align 8, !tbaa !3
  %39 = load i8, ptr %37, align 1, !tbaa !12
  %40 = zext i8 %39 to i32
  %41 = load ptr, ptr %6, align 8, !tbaa !10
  %42 = getelementptr inbounds i32, ptr %41, i64 1
  %43 = load i32, ptr %42, align 4, !tbaa !13
  %44 = or i32 %43, %40
  store i32 %44, ptr %42, align 4, !tbaa !13
  %45 = load ptr, ptr %3, align 8, !tbaa !3
  %46 = getelementptr inbounds nuw i8, ptr %45, i32 1
  store ptr %46, ptr %3, align 8, !tbaa !3
  %47 = load i8, ptr %45, align 1, !tbaa !12
  %48 = zext i8 %47 to i32
  %49 = shl i32 %48, 8
  %50 = load ptr, ptr %6, align 8, !tbaa !10
  %51 = getelementptr inbounds i32, ptr %50, i64 2
  store i32 %49, ptr %51, align 4, !tbaa !13
  %52 = load ptr, ptr %3, align 8, !tbaa !3
  %53 = getelementptr inbounds nuw i8, ptr %52, i32 1
  store ptr %53, ptr %3, align 8, !tbaa !3
  %54 = load i8, ptr %52, align 1, !tbaa !12
  %55 = zext i8 %54 to i32
  %56 = load ptr, ptr %6, align 8, !tbaa !10
  %57 = getelementptr inbounds i32, ptr %56, i64 2
  %58 = load i32, ptr %57, align 4, !tbaa !13
  %59 = or i32 %58, %55
  store i32 %59, ptr %57, align 4, !tbaa !13
  %60 = load ptr, ptr %3, align 8, !tbaa !3
  %61 = getelementptr inbounds nuw i8, ptr %60, i32 1
  store ptr %61, ptr %3, align 8, !tbaa !3
  %62 = load i8, ptr %60, align 1, !tbaa !12
  %63 = zext i8 %62 to i32
  %64 = shl i32 %63, 8
  %65 = load ptr, ptr %6, align 8, !tbaa !10
  %66 = getelementptr inbounds i32, ptr %65, i64 3
  store i32 %64, ptr %66, align 4, !tbaa !13
  %67 = load ptr, ptr %3, align 8, !tbaa !3
  %68 = getelementptr inbounds nuw i8, ptr %67, i32 1
  store ptr %68, ptr %3, align 8, !tbaa !3
  %69 = load i8, ptr %67, align 1, !tbaa !12
  %70 = zext i8 %69 to i32
  %71 = load ptr, ptr %6, align 8, !tbaa !10
  %72 = getelementptr inbounds i32, ptr %71, i64 3
  %73 = load i32, ptr %72, align 4, !tbaa !13
  %74 = or i32 %73, %70
  store i32 %74, ptr %72, align 4, !tbaa !13
  %75 = load ptr, ptr %3, align 8, !tbaa !3
  %76 = getelementptr inbounds nuw i8, ptr %75, i32 1
  store ptr %76, ptr %3, align 8, !tbaa !3
  %77 = load i8, ptr %75, align 1, !tbaa !12
  %78 = zext i8 %77 to i32
  %79 = shl i32 %78, 8
  %80 = load ptr, ptr %6, align 8, !tbaa !10
  %81 = getelementptr inbounds i32, ptr %80, i64 4
  store i32 %79, ptr %81, align 4, !tbaa !13
  %82 = load ptr, ptr %3, align 8, !tbaa !3
  %83 = getelementptr inbounds nuw i8, ptr %82, i32 1
  store ptr %83, ptr %3, align 8, !tbaa !3
  %84 = load i8, ptr %82, align 1, !tbaa !12
  %85 = zext i8 %84 to i32
  %86 = load ptr, ptr %6, align 8, !tbaa !10
  %87 = getelementptr inbounds i32, ptr %86, i64 4
  %88 = load i32, ptr %87, align 4, !tbaa !13
  %89 = or i32 %88, %85
  store i32 %89, ptr %87, align 4, !tbaa !13
  %90 = load ptr, ptr %3, align 8, !tbaa !3
  %91 = getelementptr inbounds nuw i8, ptr %90, i32 1
  store ptr %91, ptr %3, align 8, !tbaa !3
  %92 = load i8, ptr %90, align 1, !tbaa !12
  %93 = zext i8 %92 to i32
  %94 = shl i32 %93, 8
  %95 = load ptr, ptr %6, align 8, !tbaa !10
  %96 = getelementptr inbounds i32, ptr %95, i64 5
  store i32 %94, ptr %96, align 4, !tbaa !13
  %97 = load ptr, ptr %3, align 8, !tbaa !3
  %98 = getelementptr inbounds nuw i8, ptr %97, i32 1
  store ptr %98, ptr %3, align 8, !tbaa !3
  %99 = load i8, ptr %97, align 1, !tbaa !12
  %100 = zext i8 %99 to i32
  %101 = load ptr, ptr %6, align 8, !tbaa !10
  %102 = getelementptr inbounds i32, ptr %101, i64 5
  %103 = load i32, ptr %102, align 4, !tbaa !13
  %104 = or i32 %103, %100
  store i32 %104, ptr %102, align 4, !tbaa !13
  %105 = load ptr, ptr %3, align 8, !tbaa !3
  %106 = getelementptr inbounds nuw i8, ptr %105, i32 1
  store ptr %106, ptr %3, align 8, !tbaa !3
  %107 = load i8, ptr %105, align 1, !tbaa !12
  %108 = zext i8 %107 to i32
  %109 = shl i32 %108, 8
  %110 = load ptr, ptr %6, align 8, !tbaa !10
  %111 = getelementptr inbounds i32, ptr %110, i64 6
  store i32 %109, ptr %111, align 4, !tbaa !13
  %112 = load ptr, ptr %3, align 8, !tbaa !3
  %113 = getelementptr inbounds nuw i8, ptr %112, i32 1
  store ptr %113, ptr %3, align 8, !tbaa !3
  %114 = load i8, ptr %112, align 1, !tbaa !12
  %115 = zext i8 %114 to i32
  %116 = load ptr, ptr %6, align 8, !tbaa !10
  %117 = getelementptr inbounds i32, ptr %116, i64 6
  %118 = load i32, ptr %117, align 4, !tbaa !13
  %119 = or i32 %118, %115
  store i32 %119, ptr %117, align 4, !tbaa !13
  %120 = load ptr, ptr %3, align 8, !tbaa !3
  %121 = getelementptr inbounds nuw i8, ptr %120, i32 1
  store ptr %121, ptr %3, align 8, !tbaa !3
  %122 = load i8, ptr %120, align 1, !tbaa !12
  %123 = zext i8 %122 to i32
  %124 = shl i32 %123, 8
  %125 = load ptr, ptr %6, align 8, !tbaa !10
  %126 = getelementptr inbounds i32, ptr %125, i64 7
  store i32 %124, ptr %126, align 4, !tbaa !13
  %127 = load ptr, ptr %3, align 8, !tbaa !3
  %128 = getelementptr inbounds nuw i8, ptr %127, i32 1
  store ptr %128, ptr %3, align 8, !tbaa !3
  %129 = load i8, ptr %127, align 1, !tbaa !12
  %130 = zext i8 %129 to i32
  %131 = load ptr, ptr %6, align 8, !tbaa !10
  %132 = getelementptr inbounds i32, ptr %131, i64 7
  %133 = load i32, ptr %132, align 4, !tbaa !13
  %134 = or i32 %133, %130
  store i32 %134, ptr %132, align 4, !tbaa !13
  %135 = load ptr, ptr %6, align 8, !tbaa !10
  store ptr %135, ptr %7, align 8, !tbaa !10
  %136 = load ptr, ptr %6, align 8, !tbaa !10
  %137 = getelementptr inbounds i32, ptr %136, i64 8
  store ptr %137, ptr %6, align 8, !tbaa !10
  store i32 0, ptr %5, align 4, !tbaa !13
  br label %138

138:                                              ; preds = %236, %2
  %139 = load i32, ptr %5, align 4, !tbaa !13
  %140 = icmp slt i32 %139, 6
  br i1 %140, label %141, label %239

141:                                              ; preds = %138
  %142 = load ptr, ptr %7, align 8, !tbaa !10
  %143 = getelementptr inbounds i32, ptr %142, i64 1
  %144 = load i32, ptr %143, align 4, !tbaa !13
  store i32 %144, ptr %10, align 4, !tbaa !13
  %145 = load ptr, ptr %7, align 8, !tbaa !10
  %146 = getelementptr inbounds i32, ptr %145, i64 2
  %147 = load i32, ptr %146, align 4, !tbaa !13
  store i32 %147, ptr %9, align 4, !tbaa !13
  %148 = load i32, ptr %10, align 4, !tbaa !13
  %149 = shl i32 %148, 9
  %150 = load i32, ptr %9, align 4, !tbaa !13
  %151 = lshr i32 %150, 7
  %152 = or i32 %149, %151
  %153 = and i32 %152, 65535
  %154 = load ptr, ptr %6, align 8, !tbaa !10
  %155 = getelementptr inbounds nuw i32, ptr %154, i32 1
  store ptr %155, ptr %6, align 8, !tbaa !10
  store i32 %153, ptr %154, align 4, !tbaa !13
  %156 = load ptr, ptr %7, align 8, !tbaa !10
  %157 = getelementptr inbounds i32, ptr %156, i64 3
  %158 = load i32, ptr %157, align 4, !tbaa !13
  store i32 %158, ptr %8, align 4, !tbaa !13
  %159 = load i32, ptr %9, align 4, !tbaa !13
  %160 = shl i32 %159, 9
  %161 = load i32, ptr %8, align 4, !tbaa !13
  %162 = lshr i32 %161, 7
  %163 = or i32 %160, %162
  %164 = and i32 %163, 65535
  %165 = load ptr, ptr %6, align 8, !tbaa !10
  %166 = getelementptr inbounds nuw i32, ptr %165, i32 1
  store ptr %166, ptr %6, align 8, !tbaa !10
  store i32 %164, ptr %165, align 4, !tbaa !13
  %167 = load ptr, ptr %7, align 8, !tbaa !10
  %168 = getelementptr inbounds i32, ptr %167, i64 4
  %169 = load i32, ptr %168, align 4, !tbaa !13
  store i32 %169, ptr %9, align 4, !tbaa !13
  %170 = load i32, ptr %8, align 4, !tbaa !13
  %171 = shl i32 %170, 9
  %172 = load i32, ptr %9, align 4, !tbaa !13
  %173 = lshr i32 %172, 7
  %174 = or i32 %171, %173
  %175 = and i32 %174, 65535
  %176 = load ptr, ptr %6, align 8, !tbaa !10
  %177 = getelementptr inbounds nuw i32, ptr %176, i32 1
  store ptr %177, ptr %6, align 8, !tbaa !10
  store i32 %175, ptr %176, align 4, !tbaa !13
  %178 = load ptr, ptr %7, align 8, !tbaa !10
  %179 = getelementptr inbounds i32, ptr %178, i64 5
  %180 = load i32, ptr %179, align 4, !tbaa !13
  store i32 %180, ptr %8, align 4, !tbaa !13
  %181 = load i32, ptr %9, align 4, !tbaa !13
  %182 = shl i32 %181, 9
  %183 = load i32, ptr %8, align 4, !tbaa !13
  %184 = lshr i32 %183, 7
  %185 = or i32 %182, %184
  %186 = and i32 %185, 65535
  %187 = load ptr, ptr %6, align 8, !tbaa !10
  %188 = getelementptr inbounds nuw i32, ptr %187, i32 1
  store ptr %188, ptr %6, align 8, !tbaa !10
  store i32 %186, ptr %187, align 4, !tbaa !13
  %189 = load ptr, ptr %7, align 8, !tbaa !10
  %190 = getelementptr inbounds i32, ptr %189, i64 6
  %191 = load i32, ptr %190, align 4, !tbaa !13
  store i32 %191, ptr %9, align 4, !tbaa !13
  %192 = load i32, ptr %8, align 4, !tbaa !13
  %193 = shl i32 %192, 9
  %194 = load i32, ptr %9, align 4, !tbaa !13
  %195 = lshr i32 %194, 7
  %196 = or i32 %193, %195
  %197 = and i32 %196, 65535
  %198 = load ptr, ptr %6, align 8, !tbaa !10
  %199 = getelementptr inbounds nuw i32, ptr %198, i32 1
  store ptr %199, ptr %6, align 8, !tbaa !10
  store i32 %197, ptr %198, align 4, !tbaa !13
  %200 = load ptr, ptr %7, align 8, !tbaa !10
  %201 = getelementptr inbounds i32, ptr %200, i64 7
  %202 = load i32, ptr %201, align 4, !tbaa !13
  store i32 %202, ptr %8, align 4, !tbaa !13
  %203 = load i32, ptr %9, align 4, !tbaa !13
  %204 = shl i32 %203, 9
  %205 = load i32, ptr %8, align 4, !tbaa !13
  %206 = lshr i32 %205, 7
  %207 = or i32 %204, %206
  %208 = and i32 %207, 65535
  %209 = load ptr, ptr %6, align 8, !tbaa !10
  %210 = getelementptr inbounds nuw i32, ptr %209, i32 1
  store ptr %210, ptr %6, align 8, !tbaa !10
  store i32 %208, ptr %209, align 4, !tbaa !13
  %211 = load ptr, ptr %7, align 8, !tbaa !10
  %212 = getelementptr inbounds i32, ptr %211, i64 0
  %213 = load i32, ptr %212, align 4, !tbaa !13
  store i32 %213, ptr %9, align 4, !tbaa !13
  %214 = load i32, ptr %5, align 4, !tbaa !13
  %215 = icmp sge i32 %214, 5
  br i1 %215, label %216, label %217

216:                                              ; preds = %141
  br label %239

217:                                              ; preds = %141
  %218 = load i32, ptr %8, align 4, !tbaa !13
  %219 = shl i32 %218, 9
  %220 = load i32, ptr %9, align 4, !tbaa !13
  %221 = lshr i32 %220, 7
  %222 = or i32 %219, %221
  %223 = and i32 %222, 65535
  %224 = load ptr, ptr %6, align 8, !tbaa !10
  %225 = getelementptr inbounds nuw i32, ptr %224, i32 1
  store ptr %225, ptr %6, align 8, !tbaa !10
  store i32 %223, ptr %224, align 4, !tbaa !13
  %226 = load i32, ptr %9, align 4, !tbaa !13
  %227 = shl i32 %226, 9
  %228 = load i32, ptr %10, align 4, !tbaa !13
  %229 = lshr i32 %228, 7
  %230 = or i32 %227, %229
  %231 = and i32 %230, 65535
  %232 = load ptr, ptr %6, align 8, !tbaa !10
  %233 = getelementptr inbounds nuw i32, ptr %232, i32 1
  store ptr %233, ptr %6, align 8, !tbaa !10
  store i32 %231, ptr %232, align 4, !tbaa !13
  %234 = load ptr, ptr %7, align 8, !tbaa !10
  %235 = getelementptr inbounds i32, ptr %234, i64 8
  store ptr %235, ptr %7, align 8, !tbaa !10
  br label %236

236:                                              ; preds = %217
  %237 = load i32, ptr %5, align 4, !tbaa !13
  %238 = add nsw i32 %237, 1
  store i32 %238, ptr %5, align 4, !tbaa !13
  br label %138, !llvm.loop !15

239:                                              ; preds = %216, %138
  call void @llvm.lifetime.end.p0(i64 4, ptr %10) #2
  call void @llvm.lifetime.end.p0(i64 4, ptr %9) #2
  call void @llvm.lifetime.end.p0(i64 4, ptr %8) #2
  call void @llvm.lifetime.end.p0(i64 8, ptr %7) #2
  call void @llvm.lifetime.end.p0(i64 8, ptr %6) #2
  call void @llvm.lifetime.end.p0(i64 4, ptr %5) #2
  ret void
}